target datalayout = "e-m:e-p270:32:32-p271:32:32-p272:64:64-i64:64-i128:128-f80:128-n8:16:32:64-S128"
target triple = "x86_64-pc-linux-gnu"

%struct.SDL_JoystickDriver = type { ptr, ptr, ptr, ptr, ptr, ptr, ptr, ptr, ptr, ptr, ptr, ptr, ptr, ptr, ptr, ptr, ptr, ptr, ptr, ptr, ptr }

@SDL_joystick_drivers = internal global [3 x ptr] [ptr @SDL_HIDAPI_JoystickDriver, ptr @SDL_LINUX_JoystickDriver, ptr @SDL_VIRTUAL_JoystickDriver], align 16
@.str.43 = private unnamed_addr constant [22 x i8] c"Joystick %u not found\00", align 1

; Function Attrs: nounwind uwtable
define hidden void @SDL_AssertJoysticksLocked() #0 {
  br label %1

1:                                                ; preds = %0
  br label %2

2:                                                ; preds = %1
  ret void
}

; Function Attrs: nounwind uwtable
define internal zeroext i1 @SDL_GetDriverAndJoystickIndex(i32 noundef %0, ptr noundef %1, ptr noundef %2) #0 {
  %4 = alloca i1, align 1
  %5 = alloca i32, align 4
  %6 = alloca ptr, align 8
  %7 = alloca ptr, align 8
  %8 = alloca i32, align 4
  %9 = alloca i32, align 4
  %10 = alloca i32, align 4
  %11 = alloca i32, align 4
  %12 = alloca i32, align 4
  store i32 %0, ptr %5, align 4
  store ptr %1, ptr %6, align 8
  store ptr %2, ptr %7, align 8
  call void @llvm.lifetime.start.p0(i64 4, ptr %8) #7
  call void @llvm.lifetime.start.p0(i64 4, ptr %9) #7
  call void @llvm.lifetime.start.p0(i64 4, ptr %10) #7
  call void @SDL_AssertJoysticksLocked()
  %13 = load i32, ptr %5, align 4
  %14 = icmp ugt i32 %13, 0
  br i1 %14, label %15, label %64

15:                                               ; preds = %3
  store i32 0, ptr %8, align 4
  br label %16

16:                                               ; preds = %60, %15
  %17 = load i32, ptr %8, align 4
  %18 = sext i32 %17 to i64
  %19 = icmp ult i64 %18, 3
  br i1 %19, label %20, label %63

20:                                               ; preds = %16
  %21 = load i32, ptr %8, align 4
  %22 = sext i32 %21 to i64
  %23 = getelementptr inbounds [3 x ptr], ptr @SDL_joystick_drivers, i64 0, i64 %22
  %24 = load ptr, ptr %23, align 8
  %25 = getelementptr inbounds nuw %struct.SDL_JoystickDriver, ptr %24, i32 0, i32 1
  %26 = load ptr, ptr %25, align 8
  %27 = call i32 %26()
  store i32 %27, ptr %9, align 4
  store i32 0, ptr %10, align 4
  br label %28

28:                                               ; preds = %56, %20
  %29 = load i32, ptr %10, align 4
  %30 = load i32, ptr %9, align 4
  %31 = icmp slt i32 %29, %30
  br i1 %31, label %32, label %59

32:                                               ; preds = %28
  call void @llvm.lifetime.start.p0(i64 4, ptr %11) #7
  %33 = load i32, ptr %8, align 4
  %34 = sext i32 %33 to i64
  %35 = getelementptr inbounds [3 x ptr], ptr @SDL_joystick_drivers, i64 0, i64 %34
  %36 = load ptr, ptr %35, align 8
  %37 = getelementptr inbounds nuw %struct.SDL_JoystickDriver, ptr %36, i32 0, i32 10
  %38 = load ptr, ptr %37, align 8
  %39 = load i32, ptr %10, align 4
  %40 = call i32 %38(i32 noundef %39)
  store i32 %40, ptr %11, align 4
  %41 = load i32, ptr %11, align 4
  %42 = load i32, ptr %5, align 4
  %43 = icmp eq i32 %41, %42
  br i1 %43, label %44, label %52

44:                                               ; preds = %32
  %45 = load i32, ptr %8, align 4
  %46 = sext i32 %45 to i64
  %47 = getelementptr inbounds [3 x ptr], ptr @SDL_joystick_drivers, i64 0, i64 %46
  %48 = load ptr, ptr %47, align 8
  %49 = load ptr, ptr %6, align 8
  store ptr %48, ptr %49, align 8
  %50 = load i32, ptr %10, align 4
  %51 = load ptr, ptr %7, align 8
  store i32 %50, ptr %51, align 4
  store i1 true, ptr %4, align 1
  store i32 1, ptr %12, align 4
  br label %53

52:                                               ; preds = %32
  store i32 0, ptr %12, align 4
  br label %53

53:                                               ; preds = %52, %44
  call void @llvm.lifetime.end.p0(i64 4, ptr %11) #7
  %54 = load i32, ptr %12, align 4
  switch i32 %54, label %67 [
    i32 0, label %55
  ]

55:                                               ; preds = %53
  br label %56

56:                                               ; preds = %55
  %57 = load i32, ptr %10, align 4
  %58 = add nsw i32 %57, 1
  store i32 %58, ptr %10, align 4
  br label %28, !llvm.loop !15

59:                                               ; preds = %28
  br label %60

60:                                               ; preds = %59
  %61 = load i32, ptr %8, align 4
  %62 = add nsw i32 %61, 1
  store i32 %62, ptr %8, align 4
  br label %16, !llvm.loop !16

63:                                               ; preds = %16
  br label %64

64:                                               ; preds = %63, %3
  %65 = load i32, ptr %5, align 4
  %66 = call zeroext i1 (ptr, ...) @SDL_SetError_REAL(ptr noundef @.str.43, i32 noundef %65)
  store i1 false, ptr %4, align 1
  store i32 1, ptr %12, align 4
  br label %67

67:                                               ; preds = %64, %53
  call void @llvm.lifetime.end.p0(i64 4, ptr %10) #7
  call void @llvm.lifetime.end.p0(i64 4, ptr %9) #7
  call void @llvm.lifetime.end.p0(i64 4, ptr %8) #7
  %68 = load i1, ptr %4, align 1
  ret i1 %68
}

; Function Attrs: nounwind uwtable
define hidden ptr @SDL_GetJoystickVirtualGamepadInfoForID(i32 noundef %0) #0 {
  %2 = alloca i32, align 4
  %3 = alloca ptr, align 8
  %4 = alloca i32, align 4
  %5 = alloca ptr, align 8
  store i32 %0, ptr %2, align 4
  call void @llvm.lifetime.start.p0(i64 8, ptr %3) #7
  call void @llvm.lifetime.start.p0(i64 4, ptr %4) #7
  call void @llvm.lifetime.start.p0(i64 8, ptr %5) #7
  store ptr null, ptr %5, align 8
  %6 = call zeroext i1 @SDL_SteamVirtualGamepadEnabled()
  br i1 %6, label %7, label %17

7:                                                ; preds = %1
  %8 = load i32, ptr %2, align 4
  %9 = call zeroext i1 @SDL_GetDriverAndJoystickIndex(i32 noundef %8, ptr noundef %3, ptr noundef %4)
  br i1 %9, label %10, label %17

10:                                               ; preds = %7
  %11 = load ptr, ptr %3, align 8
  %12 = getelementptr inbounds nuw %struct.SDL_JoystickDriver, ptr %11, i32 0, i32 6
  %13 = load ptr, ptr %12, align 8
  %14 = load i32, ptr %4, align 4
  %15 = call i32 %13(i32 noundef %14)
  %16 = call ptr @SDL_GetSteamVirtualGamepadInfo(i32 noundef %15)
  store ptr %16, ptr %5, align 8
  br label %17

17:                                               ; preds = %10, %7, %1
  %18 = load ptr, ptr %5, align 8
  call void @llvm.lifetime.end.p0(i64 8, ptr %5) #7
  call void @llvm.lifetime.end.p0(i64 4, ptr %4) #7
  call void @llvm.lifetime.end.p0(i64 8, ptr %3) #7
  ret ptr %18
}