; Function Attrs: nounwind uwtable
define hidden ptr @SDL_GetJoystickVirtualGamepadInfoForID(i32 noundef %0) local_unnamed_addr #1 {
  %2 = tail call zeroext i1 @SDL_SteamVirtualGamepadEnabled() #13
  br i1 %2, label %3, label %21

3:                                                ; preds = %1
  %.not.i = icmp eq i32 %0, 0
  br i1 %.not.i, label %SDL_GetDriverAndJoystickIndex.exit, label %.preheader.i

.preheader.i:                                     ; preds = %3, %._crit_edge.i
  %indvars.iv.i = phi i64 [ %indvars.iv.next.i, %._crit_edge.i ], [ 0, %3 ]
  %4 = getelementptr inbounds nuw [3 x ptr], ptr @SDL_joystick_drivers, i64 0, i64 %indvars.iv.i
  %5 = load ptr, ptr %4, align 8
  %6 = getelementptr inbounds nuw i8, ptr %5, i64 8
  %7 = load ptr, ptr %6, align 8
  %8 = tail call i32 %7() #13
  %9 = icmp sgt i32 %8, 0
  br i1 %9, label %.lr.ph.i, label %._crit_edge.i

.lr.ph.i:                                         ; preds = %.preheader.i
  %10 = getelementptr inbounds nuw i8, ptr %5, i64 80
  br label %11

11:                                               ; preds = %.critedge.i, %.lr.ph.i
  %.01824.i = phi i32 [ 0, %.lr.ph.i ], [ %14, %.critedge.i ]
  %12 = load ptr, ptr %10, align 8
  %13 = tail call i32 %12(i32 noundef %.01824.i) #13
  %.not22.i = icmp eq i32 %13, %0
  br i1 %.not22.i, label %16, label %.critedge.i

.critedge.i:                                      ; preds = %11
  %14 = add nuw nsw i32 %.01824.i, 1
  %exitcond.not.i = icmp eq i32 %14, %8
  br i1 %exitcond.not.i, label %._crit_edge.i, label %11, !llvm.loop !13

._crit_edge.i:                                    ; preds = %.critedge.i, %.preheader.i
  %indvars.iv.next.i = add nuw nsw i64 %indvars.iv.i, 1
  %exitcond29.not.i = icmp eq i64 %indvars.iv.next.i, 3
  br i1 %exitcond29.not.i, label %SDL_GetDriverAndJoystickIndex.exit, label %.preheader.i, !llvm.loop !14

SDL_GetDriverAndJoystickIndex.exit:               ; preds = %._crit_edge.i, %3
  %15 = tail call zeroext i1 (ptr, ...) @SDL_SetError_REAL(ptr noundef nonnull @.str.43, i32 noundef %0) #13
  br label %21

16:                                               ; preds = %11
  %17 = getelementptr inbounds nuw i8, ptr %5, i64 48
  %18 = load ptr, ptr %17, align 8
  %19 = tail call i32 %18(i32 noundef %.01824.i) #13
  %20 = tail call ptr @SDL_GetSteamVirtualGamepadInfo(i32 noundef %19) #13
  br label %21

21:                                               ; preds = %SDL_GetDriverAndJoystickIndex.exit, %16, %1
  %.0 = phi ptr [ %20, %16 ], [ null, %SDL_GetDriverAndJoystickIndex.exit ], [ null, %1 ]
  ret ptr %.0
}